target datalayout = "e-m:e-p270:32:32-p271:32:32-p272:64:64-i64:64-i128:128-f80:128-n8:16:32:64-S128"
target triple = "x86_64-pc-linux-gnu"

%struct.CFHDContext = type { ptr, [2088 x %struct.CFHD_RL_VLC_ELEM], [4572 x %struct.CFHD_RL_VLC_ELEM], [2 x [256 x i32]], i32, i32, i32, i32, i32, i32, i32, i32, i32, i32, i32, i32, i32, i32, i32, i32, i32, i32, i32, i8, i16, i32, i32, i32, i32, i32, [8 x i8], [4 x %struct.Plane], %struct.Peak, %struct.CFHDDSPContext }
%struct.CFHD_RL_VLC_ELEM = type { i16, i8, i16 }
%struct.Plane = type { i32, i32, i64, ptr, ptr, i32, [17 x ptr], [10 x ptr], [6 x [4 x %struct.SubBand]] }
%struct.SubBand = type { i64, i32, i32, i32, i32, i8 }
%struct.Peak = type { i32, i32, %struct.GetByteContext }
%struct.GetByteContext = type { ptr, ptr, ptr }
%struct.CFHDDSPContext = type { ptr, ptr, ptr }

; Function Attrs: nounwind uwtable
define internal void @free_buffers(ptr noundef %0) #0 {
  %2 = alloca ptr, align 8
  %3 = alloca i64, align 8
  %4 = alloca i32, align 4
  %5 = alloca ptr, align 8
  %6 = alloca i32, align 4
  %7 = alloca i32, align 4
  %8 = alloca i32, align 4
  store ptr %0, ptr %2, align 8, !tbaa !29
  call void @llvm.lifetime.start.p0(i64 8, ptr %3) #11
  store i64 0, ptr %3, align 8, !tbaa !123
  br label %9

9:                                                ; preds = %104, %1
  %10 = load i64, ptr %3, align 8, !tbaa !123
  %11 = icmp ult i64 %10, 4
  br i1 %11, label %13, label %12

12:                                               ; preds = %9
  store i32 2, ptr %4, align 4
  call void @llvm.lifetime.end.p0(i64 8, ptr %3) #11
  br label %107

13:                                               ; preds = %9
  call void @llvm.lifetime.start.p0(i64 8, ptr %5) #11
  %14 = load ptr, ptr %2, align 8, !tbaa !29
  %15 = getelementptr inbounds nuw %struct.CFHDContext, ptr %14, i32 0, i32 31
  %16 = load i64, ptr %3, align 8, !tbaa !123
  %17 = getelementptr inbounds nuw [4 x %struct.Plane], ptr %15, i64 0, i64 %16
  store ptr %17, ptr %5, align 8, !tbaa !156
  %18 = load ptr, ptr %2, align 8, !tbaa !29
  %19 = getelementptr inbounds nuw %struct.CFHDContext, ptr %18, i32 0, i32 31
  %20 = load i64, ptr %3, align 8, !tbaa !123
  %21 = getelementptr inbounds nuw [4 x %struct.Plane], ptr %19, i64 0, i64 %20
  %22 = getelementptr inbounds nuw %struct.Plane, ptr %21, i32 0, i32 3
  call void @av_freep(ptr noundef %22)
  %23 = load ptr, ptr %2, align 8, !tbaa !29
  %24 = getelementptr inbounds nuw %struct.CFHDContext, ptr %23, i32 0, i32 31
  %25 = load i64, ptr %3, align 8, !tbaa !123
  %26 = getelementptr inbounds nuw [4 x %struct.Plane], ptr %24, i64 0, i64 %25
  %27 = getelementptr inbounds nuw %struct.Plane, ptr %26, i32 0, i32 4
  call void @av_freep(ptr noundef %27)
  %28 = load ptr, ptr %2, align 8, !tbaa !29
  %29 = getelementptr inbounds nuw %struct.CFHDContext, ptr %28, i32 0, i32 31
  %30 = load i64, ptr %3, align 8, !tbaa !123
  %31 = getelementptr inbounds nuw [4 x %struct.Plane], ptr %29, i64 0, i64 %30
  %32 = getelementptr inbounds nuw %struct.Plane, ptr %31, i32 0, i32 5
  store i32 0, ptr %32, align 8, !tbaa !37
  call void @llvm.lifetime.start.p0(i64 4, ptr %6) #11
  store i32 0, ptr %6, align 4, !tbaa !49
  br label %33

33:                                               ; preds = %46, %13
  %34 = load i32, ptr %6, align 4, !tbaa !49
  %35 = icmp slt i32 %34, 17
  br i1 %35, label %37, label %36

36:                                               ; preds = %33
  store i32 5, ptr %4, align 4
  call void @llvm.lifetime.end.p0(i64 4, ptr %6) #11
  br label %49

37:                                               ; preds = %33
  %38 = load ptr, ptr %2, align 8, !tbaa !29
  %39 = getelementptr inbounds nuw %struct.CFHDContext, ptr %38, i32 0, i32 31
  %40 = load i64, ptr %3, align 8, !tbaa !123
  %41 = getelementptr inbounds nuw [4 x %struct.Plane], ptr %39, i64 0, i64 %40
  %42 = getelementptr inbounds nuw %struct.Plane, ptr %41, i32 0, i32 6
  %43 = load i32, ptr %6, align 4, !tbaa !49
  %44 = sext i32 %43 to i64
  %45 = getelementptr inbounds [17 x ptr], ptr %42, i64 0, i64 %44
  store ptr null, ptr %45, align 8, !tbaa !100
  br label %46

46:                                               ; preds = %37
  %47 = load i32, ptr %6, align 4, !tbaa !49
  %48 = add nsw i32 %47, 1
  store i32 %48, ptr %6, align 4, !tbaa !49
  br label %33, !llvm.loop !158

49:                                               ; preds = %36
  call void @llvm.lifetime.start.p0(i64 4, ptr %7) #11
  store i32 0, ptr %7, align 4, !tbaa !49
  br label %50

50:                                               ; preds = %63, %49
  %51 = load i32, ptr %7, align 4, !tbaa !49
  %52 = icmp slt i32 %51, 10
  br i1 %52, label %54, label %53

53:                                               ; preds = %50
  store i32 8, ptr %4, align 4
  call void @llvm.lifetime.end.p0(i64 4, ptr %7) #11
  br label %66

54:                                               ; preds = %50
  %55 = load ptr, ptr %2, align 8, !tbaa !29
  %56 = getelementptr inbounds nuw %struct.CFHDContext, ptr %55, i32 0, i32 31
  %57 = load i64, ptr %3, align 8, !tbaa !123
  %58 = getelementptr inbounds nuw [4 x %struct.Plane], ptr %56, i64 0, i64 %57
  %59 = getelementptr inbounds nuw %struct.Plane, ptr %58, i32 0, i32 7
  %60 = load i32, ptr %7, align 4, !tbaa !49
  %61 = sext i32 %60 to i64
  %62 = getelementptr inbounds [10 x ptr], ptr %59, i64 0, i64 %61
  store ptr null, ptr %62, align 8, !tbaa !100
  br label %63

63:                                               ; preds = %54
  %64 = load i32, ptr %7, align 4, !tbaa !49
  %65 = add nsw i32 %64, 1
  store i32 %65, ptr %7, align 4, !tbaa !49
  br label %50, !llvm.loop !159

66:                                               ; preds = %53
  call void @llvm.lifetime.start.p0(i64 4, ptr %8) #11
  store i32 0, ptr %8, align 4, !tbaa !49
  br label %67

67:                                               ; preds = %100, %66
  %68 = load i32, ptr %8, align 4, !tbaa !49
  %69 = icmp slt i32 %68, 6
  br i1 %69, label %71, label %70

70:                                               ; preds = %67
  store i32 11, ptr %4, align 4
  call void @llvm.lifetime.end.p0(i64 4, ptr %8) #11
  br label %103

71:                                               ; preds = %67
  %72 = load ptr, ptr %5, align 8, !tbaa !156
  %73 = getelementptr inbounds nuw %struct.Plane, ptr %72, i32 0, i32 8
  %74 = load i32, ptr %8, align 4, !tbaa !49
  %75 = sext i32 %74 to i64
  %76 = getelementptr inbounds [6 x [4 x %struct.SubBand]], ptr %73, i64 0, i64 %75
  %77 = getelementptr inbounds [4 x %struct.SubBand], ptr %76, i64 0, i64 3
  %78 = getelementptr inbounds nuw %struct.SubBand, ptr %77, i32 0, i32 5
  store i8 0, ptr %78, align 8, !tbaa !105
  %79 = load ptr, ptr %5, align 8, !tbaa !156
  %80 = getelementptr inbounds nuw %struct.Plane, ptr %79, i32 0, i32 8
  %81 = load i32, ptr %8, align 4, !tbaa !49
  %82 = sext i32 %81 to i64
  %83 = getelementptr inbounds [6 x [4 x %struct.SubBand]], ptr %80, i64 0, i64 %82
  %84 = getelementptr inbounds [4 x %struct.SubBand], ptr %83, i64 0, i64 2
  %85 = getelementptr inbounds nuw %struct.SubBand, ptr %84, i32 0, i32 5
  store i8 0, ptr %85, align 8, !tbaa !105
  %86 = load ptr, ptr %5, align 8, !tbaa !156
  %87 = getelementptr inbounds nuw %struct.Plane, ptr %86, i32 0, i32 8
  %88 = load i32, ptr %8, align 4, !tbaa !49
  %89 = sext i32 %88 to i64
  %90 = getelementptr inbounds [6 x [4 x %struct.SubBand]], ptr %87, i64 0, i64 %89
  %91 = getelementptr inbounds [4 x %struct.SubBand], ptr %90, i64 0, i64 1
  %92 = getelementptr inbounds nuw %struct.SubBand, ptr %91, i32 0, i32 5
  store i8 0, ptr %92, align 8, !tbaa !105
  %93 = load ptr, ptr %5, align 8, !tbaa !156
  %94 = getelementptr inbounds nuw %struct.Plane, ptr %93, i32 0, i32 8
  %95 = load i32, ptr %8, align 4, !tbaa !49
  %96 = sext i32 %95 to i64
  %97 = getelementptr inbounds [6 x [4 x %struct.SubBand]], ptr %94, i64 0, i64 %96
  %98 = getelementptr inbounds [4 x %struct.SubBand], ptr %97, i64 0, i64 0
  %99 = getelementptr inbounds nuw %struct.SubBand, ptr %98, i32 0, i32 5
  store i8 0, ptr %99, align 8, !tbaa !105
  br label %100

100:                                              ; preds = %71
  %101 = load i32, ptr %8, align 4, !tbaa !49
  %102 = add nsw i32 %101, 1
  store i32 %102, ptr %8, align 4, !tbaa !49
  br label %67, !llvm.loop !160

103:                                              ; preds = %70
  call void @llvm.lifetime.end.p0(i64 8, ptr %5) #11
  br label %104

104:                                              ; preds = %103
  %105 = load i64, ptr %3, align 8, !tbaa !123
  %106 = add i64 %105, 1
  store i64 %106, ptr %3, align 8, !tbaa !123
  br label %9, !llvm.loop !161

107:                                              ; preds = %12
  %108 = load ptr, ptr %2, align 8, !tbaa !29
  %109 = getelementptr inbounds nuw %struct.CFHDContext, ptr %108, i32 0, i32 15
  store i32 0, ptr %109, align 4, !tbaa !41
  %110 = load ptr, ptr %2, align 8, !tbaa !29
  %111 = getelementptr inbounds nuw %struct.CFHDContext, ptr %110, i32 0, i32 14
  store i32 0, ptr %111, align 8, !tbaa !40
  %112 = load ptr, ptr %2, align 8, !tbaa !29
  %113 = getelementptr inbounds nuw %struct.CFHDContext, ptr %112, i32 0, i32 17
  store i32 -2147483648, ptr %113, align 4, !tbaa !42
  ret void
}