; Function Attrs: nounwind uwtable
define internal fastcc void @free_buffers(ptr noundef %0) unnamed_addr #0 {
  %2 = getelementptr inbounds nuw i8, ptr %0, i64 42128
  %invariant.gep = getelementptr i8, ptr %0, i64 42168
  br label %.preheader35

3:                                                ; preds = %13
  %4 = getelementptr inbounds nuw i8, ptr %0, i64 42060
  store i32 0, ptr %4, align 4, !tbaa !38
  %5 = getelementptr inbounds nuw i8, ptr %0, i64 42056
  store i32 0, ptr %5, align 8, !tbaa !37
  %6 = getelementptr inbounds nuw i8, ptr %0, i64 42068
  store i32 -2147483648, ptr %6, align 4, !tbaa !39
  ret void

.preheader35:                                     ; preds = %1, %13
  %.03439 = phi i64 [ 0, %1 ], [ %14, %13 ]
  %7 = shl nuw nsw i64 %.03439, 10
  %gep = getelementptr i8, ptr %invariant.gep, i64 %7
  %8 = getelementptr inbounds nuw [4 x %struct.Plane], ptr %2, i64 0, i64 %.03439
  %9 = getelementptr inbounds nuw i8, ptr %8, i64 16
  tail call void @av_freep(ptr noundef nonnull %9) #10
  %10 = getelementptr inbounds nuw i8, ptr %8, i64 24
  tail call void @av_freep(ptr noundef nonnull %10) #10
  %11 = getelementptr inbounds nuw i8, ptr %8, i64 32
  store i32 0, ptr %11, align 8, !tbaa !34
  %12 = getelementptr inbounds nuw i8, ptr %8, i64 256
  tail call void @llvm.memset.p0.i64(ptr noundef nonnull align 8 dereferenceable(216) %gep, i8 0, i64 216, i1 false)
  br label %15

13:                                               ; preds = %15
  %14 = add nuw nsw i64 %.03439, 1
  %exitcond44.not = icmp eq i64 %14, 4
  br i1 %exitcond44.not, label %3, label %.preheader35, !llvm.loop !40

15:                                               ; preds = %.preheader35, %15
  %indvars.iv = phi i64 [ 0, %.preheader35 ], [ %indvars.iv.next, %15 ]
  %16 = getelementptr inbounds nuw [6 x [4 x %struct.SubBand]], ptr %12, i64 0, i64 %indvars.iv
  %17 = getelementptr inbounds nuw i8, ptr %16, i64 120
  store i8 0, ptr %17, align 8, !tbaa !42
  %18 = getelementptr inbounds nuw i8, ptr %16, i64 88
  store i8 0, ptr %18, align 8, !tbaa !42
  %19 = getelementptr inbounds nuw i8, ptr %16, i64 56
  store i8 0, ptr %19, align 8, !tbaa !42
  %20 = getelementptr inbounds nuw i8, ptr %16, i64 24
  store i8 0, ptr %20, align 8, !tbaa !42
  %indvars.iv.next = add nuw nsw i64 %indvars.iv, 1
  %exitcond.not = icmp eq i64 %indvars.iv.next, 6
  br i1 %exitcond.not, label %13, label %15, !llvm.loop !44
}